target datalayout = "e-m:e-p270:32:32-p271:32:32-p272:64:64-i64:64-i128:128-f80:128-n8:16:32:64-S128"
target triple = "x86_64-pc-linux-gnu"

%struct.xlist = type { i32, i32, ptr, ptr, ptr, ptr, %union.pthread_rwlock_t, ptr, ptr, [0 x %struct.listNode] }
%union.pthread_rwlock_t = type { %struct.__pthread_rwlock_arch_t }
%struct.__pthread_rwlock_arch_t = type { i32, i32, i32, i32, i32, i32, i32, i32, i8, [7 x i8], i64, i32 }
%struct.listNode = type { ptr, ptr }

@.str.3 = private unnamed_addr constant [32 x i8] c"%s: pthread_rwlock_unlock(): %m\00", align 1
@.str.5 = private unnamed_addr constant [32 x i8] c"%s: pthread_rwlock_rdlock(): %m\00", align 1
@__func__.list_peek = private unnamed_addr constant [10 x i8] c"list_peek\00", align 1

; Function Attrs: nounwind uwtable
define dso_local ptr @list_peek(ptr noundef %0) #0 {
  %2 = alloca ptr, align 8
  %3 = alloca ptr, align 8
  %4 = alloca i32, align 4
  %5 = alloca i32, align 4
  store ptr %0, ptr %2, align 8
  call void @llvm.lifetime.start.p0(i64 8, ptr %3) #6
  br label %6

6:                                                ; preds = %1
  call void @llvm.lifetime.start.p0(i64 4, ptr %4) #6
  %7 = load ptr, ptr %2, align 8
  %8 = getelementptr inbounds nuw %struct.xlist, ptr %7, i32 0, i32 6
  %9 = call i32 @pthread_rwlock_rdlock(ptr noundef %8) #6
  store i32 %9, ptr %4, align 4
  %10 = load i32, ptr %4, align 4
  %11 = icmp ne i32 %10, 0
  br i1 %11, label %12, label %15

12:                                               ; preds = %6
  %13 = load i32, ptr %4, align 4
  %14 = call ptr @__errno_location() #7
  store i32 %13, ptr %14, align 4
  call void (ptr, ...) @fatal_abort(ptr noundef @.str.5, ptr noundef @__func__.list_peek) #8
  unreachable

15:                                               ; preds = %6
  call void @llvm.lifetime.end.p0(i64 4, ptr %4) #6
  br label %16

16:                                               ; preds = %15
  br label %17

17:                                               ; preds = %16
  %18 = load ptr, ptr %2, align 8
  %19 = getelementptr inbounds nuw %struct.xlist, ptr %18, i32 0, i32 2
  %20 = load ptr, ptr %19, align 8
  %21 = icmp ne ptr %20, null
  br i1 %21, label %22, label %28

22:                                               ; preds = %17
  %23 = load ptr, ptr %2, align 8
  %24 = getelementptr inbounds nuw %struct.xlist, ptr %23, i32 0, i32 2
  %25 = load ptr, ptr %24, align 8
  %26 = getelementptr inbounds nuw %struct.listNode, ptr %25, i32 0, i32 0
  %27 = load ptr, ptr %26, align 8
  br label %29

28:                                               ; preds = %17
  br label %29

29:                                               ; preds = %28, %22
  %30 = phi ptr [ %27, %22 ], [ null, %28 ]
  store ptr %30, ptr %3, align 8
  br label %31

31:                                               ; preds = %29
  call void @llvm.lifetime.start.p0(i64 4, ptr %5) #6
  %32 = load ptr, ptr %2, align 8
  %33 = getelementptr inbounds nuw %struct.xlist, ptr %32, i32 0, i32 6
  %34 = call i32 @pthread_rwlock_unlock(ptr noundef %33) #6
  store i32 %34, ptr %5, align 4
  %35 = load i32, ptr %5, align 4
  %36 = icmp ne i32 %35, 0
  br i1 %36, label %37, label %40

37:                                               ; preds = %31
  %38 = load i32, ptr %5, align 4
  %39 = call ptr @__errno_location() #7
  store i32 %38, ptr %39, align 4
  call void (ptr, ...) @fatal_abort(ptr noundef @.str.3, ptr noundef @__func__.list_peek) #8
  unreachable

40:                                               ; preds = %31
  call void @llvm.lifetime.end.p0(i64 4, ptr %5) #6
  br label %41

41:                                               ; preds = %40
  br label %42

42:                                               ; preds = %41
  %43 = load ptr, ptr %3, align 8
  call void @llvm.lifetime.end.p0(i64 8, ptr %3) #6
  ret ptr %43
}