; Function Attrs: nounwind uwtable
define dso_local ptr @list_peek(ptr noundef %0) #0 {
  %2 = getelementptr inbounds nuw i8, ptr %0, i64 40
  %3 = tail call i32 @pthread_rwlock_rdlock(ptr noundef nonnull %2) #9
  %.not = icmp eq i32 %3, 0
  br i1 %.not, label %6, label %4

4:                                                ; preds = %1
  %5 = tail call ptr @__errno_location() #10
  store i32 %3, ptr %5, align 4
  tail call void (ptr, ...) @fatal_abort(ptr noundef nonnull @.str.5, ptr noundef nonnull @__func__.list_peek) #11
  unreachable

6:                                                ; preds = %1
  %7 = getelementptr inbounds nuw i8, ptr %0, i64 8
  %8 = load ptr, ptr %7, align 8
  %.not10 = icmp eq ptr %8, null
  br i1 %.not10, label %11, label %9

9:                                                ; preds = %6
  %10 = load ptr, ptr %8, align 8
  br label %11

11:                                               ; preds = %6, %9
  %12 = phi ptr [ %10, %9 ], [ null, %6 ]
  %13 = tail call i32 @pthread_rwlock_unlock(ptr noundef nonnull %2) #9
  %.not11 = icmp eq i32 %13, 0
  br i1 %.not11, label %16, label %14

14:                                               ; preds = %11
  %15 = tail call ptr @__errno_location() #10
  store i32 %13, ptr %15, align 4
  tail call void (ptr, ...) @fatal_abort(ptr noundef nonnull @.str.3, ptr noundef nonnull @__func__.list_peek) #11
  unreachable

16:                                               ; preds = %11
  ret ptr %12
}